target datalayout = "e-m:e-p270:32:32-p271:32:32-p272:64:64-i64:64-i128:128-f80:128-n8:16:32:64-S128"
target triple = "x86_64-pc-linux-gnu"

%struct.myobj_st = type { %struct.crypto_ex_data_st, i32, i32 }
%struct.crypto_ex_data_st = type { ptr, ptr }

@.str.1 = private unnamed_addr constant [29 x i8] c"../openssl/test/exdatatest.c\00", align 1
@MYOBJ_new.count = internal global i32 0, align 4

; Function Attrs: nounwind uwtable
define internal ptr @MYOBJ_new() #0 {
  %1 = alloca ptr, align 8
  call void @llvm.lifetime.start.p0(i64 8, ptr %1) #3
  %2 = call noalias ptr @CRYPTO_malloc(i64 noundef 24, ptr noundef @.str.1, i32 noundef 136)
  store ptr %2, ptr %1, align 8, !tbaa !4
  %3 = load ptr, ptr %1, align 8, !tbaa !4
  %4 = icmp ne ptr %3, null
  br i1 %4, label %5, label %16

5:                                                ; preds = %0
  %6 = load i32, ptr @MYOBJ_new.count, align 4, !tbaa !11
  %7 = add nsw i32 %6, 1
  store i32 %7, ptr @MYOBJ_new.count, align 4, !tbaa !11
  %8 = load ptr, ptr %1, align 8, !tbaa !4
  %9 = getelementptr inbounds nuw %struct.myobj_st, ptr %8, i32 0, i32 1
  store i32 %7, ptr %9, align 8, !tbaa !31
  %10 = load ptr, ptr %1, align 8, !tbaa !4
  %11 = load ptr, ptr %1, align 8, !tbaa !4
  %12 = getelementptr inbounds nuw %struct.myobj_st, ptr %11, i32 0, i32 0
  %13 = call i32 @CRYPTO_new_ex_data(i32 noundef 13, ptr noundef %10, ptr noundef %12)
  %14 = load ptr, ptr %1, align 8, !tbaa !4
  %15 = getelementptr inbounds nuw %struct.myobj_st, ptr %14, i32 0, i32 2
  store i32 %13, ptr %15, align 4, !tbaa !18
  br label %16

16:                                               ; preds = %5, %0
  %17 = load ptr, ptr %1, align 8, !tbaa !4
  call void @llvm.lifetime.end.p0(i64 8, ptr %1) #3
  ret ptr %17
}

; Function Attrs: nounwind uwtable
define internal ptr @MYOBJ_dup(ptr noundef %0) #0 {
  %2 = alloca ptr, align 8
  %3 = alloca ptr, align 8
  store ptr %0, ptr %2, align 8, !tbaa !4
  call void @llvm.lifetime.start.p0(i64 8, ptr %3) #3
  %4 = call ptr @MYOBJ_new()
  store ptr %4, ptr %3, align 8, !tbaa !4
  %5 = load ptr, ptr %3, align 8, !tbaa !4
  %6 = icmp ne ptr %5, null
  br i1 %6, label %7, label %17

7:                                                ; preds = %1
  %8 = load ptr, ptr %3, align 8, !tbaa !4
  %9 = getelementptr inbounds nuw %struct.myobj_st, ptr %8, i32 0, i32 0
  %10 = load ptr, ptr %2, align 8, !tbaa !4
  %11 = getelementptr inbounds nuw %struct.myobj_st, ptr %10, i32 0, i32 0
  %12 = call i32 @CRYPTO_dup_ex_data(i32 noundef 13, ptr noundef %9, ptr noundef %11)
  %13 = load ptr, ptr %3, align 8, !tbaa !4
  %14 = getelementptr inbounds nuw %struct.myobj_st, ptr %13, i32 0, i32 2
  %15 = load i32, ptr %14, align 4, !tbaa !18
  %16 = or i32 %15, %12
  store i32 %16, ptr %14, align 4, !tbaa !18
  br label %17

17:                                               ; preds = %7, %1
  %18 = load ptr, ptr %3, align 8, !tbaa !4
  call void @llvm.lifetime.end.p0(i64 8, ptr %3) #3
  ret ptr %18
}