; Function Attrs: nounwind uwtable
define internal fastcc ptr @MYOBJ_dup(ptr noundef %0) unnamed_addr #0 {
  %2 = tail call noalias ptr @CRYPTO_malloc(i64 noundef 24, ptr noundef nonnull @.str.1, i32 noundef 136) #2
  %.not.i = icmp eq ptr %2, null
  br i1 %.not.i, label %MYOBJ_new.exit.thread, label %3

3:                                                ; preds = %1
  %4 = load i32, ptr @MYOBJ_new.count, align 4, !tbaa !8
  %5 = add nsw i32 %4, 1
  store i32 %5, ptr @MYOBJ_new.count, align 4, !tbaa !8
  %6 = getelementptr inbounds nuw i8, ptr %2, i64 16
  store i32 %5, ptr %6, align 8, !tbaa !10
  %7 = tail call i32 @CRYPTO_new_ex_data(i32 noundef 13, ptr noundef nonnull %2, ptr noundef nonnull %2) #2
  %8 = getelementptr inbounds nuw i8, ptr %2, i64 20
  store i32 %7, ptr %8, align 4, !tbaa !15
  %9 = tail call i32 @CRYPTO_dup_ex_data(i32 noundef 13, ptr noundef nonnull %2, ptr noundef %0) #2
  %10 = load i32, ptr %8, align 4, !tbaa !15
  %11 = or i32 %10, %9
  store i32 %11, ptr %8, align 4, !tbaa !15
  br label %MYOBJ_new.exit.thread

MYOBJ_new.exit.thread:                            ; preds = %1, %3
  ret ptr %2
}